target datalayout = "e-m:e-p270:32:32-p271:32:32-p272:64:64-i64:64-i128:128-f80:128-n8:16:32:64-S128"
target triple = "x86_64-pc-linux-gnu"

%struct.timeval = type { i64, i64 }
%struct.evhttp = type { %struct.anon.9, %struct.boundq, %struct.httpcbq, %struct.evconq, %struct.evwsq, i32, i32, %struct.vhostsq, %struct.aliasq, ptr, %struct.timeval, %struct.timeval, i64, i64, i32, ptr, i32, ptr, ptr, ptr, ptr, ptr, ptr, ptr, ptr, ptr, ptr }
%struct.anon.9 = type { ptr, ptr }
%struct.boundq = type { ptr, ptr }
%struct.httpcbq = type { ptr, ptr }
%struct.evconq = type { ptr, ptr }
%struct.evwsq = type { ptr, ptr }
%struct.vhostsq = type { ptr, ptr }
%struct.aliasq = type { ptr, ptr }
%struct.evhttp_bound_socket = type { %struct.anon.11, ptr, ptr, ptr, ptr }
%struct.anon.11 = type { ptr, ptr }

; Function Attrs: nounwind uwtable
define void @evhttp_foreach_bound_socket(ptr noundef %0, ptr noundef %1, ptr noundef %2) #0 {
  %4 = alloca ptr, align 8
  %5 = alloca ptr, align 8
  %6 = alloca ptr, align 8
  %7 = alloca ptr, align 8
  store ptr %0, ptr %4, align 8
  store ptr %1, ptr %5, align 8
  store ptr %2, ptr %6, align 8
  call void @llvm.lifetime.start.p0(i64 8, ptr %7) #11
  %8 = load ptr, ptr %4, align 8
  %9 = getelementptr inbounds nuw %struct.evhttp, ptr %8, i32 0, i32 1
  %10 = getelementptr inbounds nuw %struct.boundq, ptr %9, i32 0, i32 0
  %11 = load ptr, ptr %10, align 8
  store ptr %11, ptr %7, align 8
  br label %12

12:                                               ; preds = %19, %3
  %13 = load ptr, ptr %7, align 8
  %14 = icmp ne ptr %13, null
  br i1 %14, label %15, label %24

15:                                               ; preds = %12
  %16 = load ptr, ptr %5, align 8
  %17 = load ptr, ptr %7, align 8
  %18 = load ptr, ptr %6, align 8
  call void %16(ptr noundef %17, ptr noundef %18)
  br label %19

19:                                               ; preds = %15
  %20 = load ptr, ptr %7, align 8
  %21 = getelementptr inbounds nuw %struct.evhttp_bound_socket, ptr %20, i32 0, i32 0
  %22 = getelementptr inbounds nuw %struct.anon.11, ptr %21, i32 0, i32 0
  %23 = load ptr, ptr %22, align 8
  store ptr %23, ptr %7, align 8
  br label %12, !llvm.loop !21

24:                                               ; preds = %12
  call void @llvm.lifetime.end.p0(i64 8, ptr %7) #11
  ret void
}