; Function Attrs: nounwind uwtable
define void @evhttp_foreach_bound_socket(ptr noundef readonly captures(none) %0, ptr noundef readonly captures(none) %1, ptr noundef %2) local_unnamed_addr #0 {
  %4 = getelementptr inbounds nuw i8, ptr %0, i64 16
  %.06 = load ptr, ptr %4, align 8
  %.not7 = icmp eq ptr %.06, null
  br i1 %.not7, label %._crit_edge, label %.lr.ph

.lr.ph:                                           ; preds = %3, %.lr.ph
  %.08 = phi ptr [ %.0, %.lr.ph ], [ %.06, %3 ]
  tail call void %1(ptr noundef nonnull %.08, ptr noundef %2) #18
  %.0 = load ptr, ptr %.08, align 8
  %.not = icmp eq ptr %.0, null
  br i1 %.not, label %._crit_edge, label %.lr.ph, !llvm.loop !22

._crit_edge:                                      ; preds = %.lr.ph, %3
  ret void
}